
SRC.elf:     file format elf32-avr

Sections:
Idx Name          Size      VMA       LMA       File off  Algn
  0 .text         00000068  00000000  00000000  00000074  2**1
                  CONTENTS, ALLOC, LOAD, READONLY, CODE
  1 .data         00000000  00800060  00800060  0000019a  2**0
                  ALLOC, LOAD, DATA
  2 .comment      0000002f  00000000  00000000  0000019a  2**0
                  CONTENTS, READONLY
  3 .stack.descriptors.hdr 0000000e  00000000  00000000  000001c9  2**0
                  CONTENTS, READONLY
  4 .debug_info   000004e6  00000000  00000000  000001d7  2**0
                  CONTENTS, READONLY, DEBUGGING
  5 .debug_abbrev 000004a3  00000000  00000000  000006bd  2**0
                  CONTENTS, READONLY, DEBUGGING
  6 .debug_line   00000119  00000000  00000000  00000b60  2**0
                  CONTENTS, READONLY, DEBUGGING
  7 .debug_str    00000196  00000000  00000000  00000c79  2**0
                  CONTENTS, READONLY, DEBUGGING
  8 .text         00000002  00000124  00000124  00000198  2**1
                  CONTENTS, ALLOC, LOAD, READONLY, CODE
  9 .note.gnu.avr.deviceinfo 0000003c  00000000  00000000  00000e10  2**2
                  CONTENTS, READONLY, DEBUGGING
 10 .text.startup.main 000000a6  00000076  00000076  000000ea  2**1
                  CONTENTS, ALLOC, LOAD, READONLY, CODE
 11 .text.__dummy_fini 00000002  0000011c  0000011c  00000190  2**1
                  CONTENTS, ALLOC, LOAD, READONLY, CODE
 12 .text.__dummy_funcs_on_exit 00000002  00000122  00000122  00000196  2**1
                  CONTENTS, ALLOC, LOAD, READONLY, CODE
 13 .text.__dummy_simulator_exit 00000002  0000011e  0000011e  00000192  2**1
                  CONTENTS, ALLOC, LOAD, READONLY, CODE
 14 .text.exit    0000000e  00000068  00000068  000000dc  2**1
                  CONTENTS, ALLOC, LOAD, READONLY, CODE
 15 .text._Exit   00000002  00000120  00000120  00000194  2**1
                  CONTENTS, ALLOC, LOAD, READONLY, CODE

Disassembly of section .text:

00000000 <__vectors>:
   0:	29 c0       	rjmp	.+82     	; 0x54 <__ctors_end>
   2:	00 00       	nop
   4:	8f c0       	rjmp	.+286    	; 0x124 <__bad_interrupt>
   6:	00 00       	nop
   8:	8d c0       	rjmp	.+282    	; 0x124 <__bad_interrupt>
   a:	00 00       	nop
   c:	8b c0       	rjmp	.+278    	; 0x124 <__bad_interrupt>
   e:	00 00       	nop
  10:	89 c0       	rjmp	.+274    	; 0x124 <__bad_interrupt>
  12:	00 00       	nop
  14:	87 c0       	rjmp	.+270    	; 0x124 <__bad_interrupt>
  16:	00 00       	nop
  18:	85 c0       	rjmp	.+266    	; 0x124 <__bad_interrupt>
  1a:	00 00       	nop
  1c:	83 c0       	rjmp	.+262    	; 0x124 <__bad_interrupt>
  1e:	00 00       	nop
  20:	81 c0       	rjmp	.+258    	; 0x124 <__bad_interrupt>
  22:	00 00       	nop
  24:	7f c0       	rjmp	.+254    	; 0x124 <__bad_interrupt>
  26:	00 00       	nop
  28:	7d c0       	rjmp	.+250    	; 0x124 <__bad_interrupt>
  2a:	00 00       	nop
  2c:	7b c0       	rjmp	.+246    	; 0x124 <__bad_interrupt>
  2e:	00 00       	nop
  30:	79 c0       	rjmp	.+242    	; 0x124 <__bad_interrupt>
  32:	00 00       	nop
  34:	77 c0       	rjmp	.+238    	; 0x124 <__bad_interrupt>
  36:	00 00       	nop
  38:	75 c0       	rjmp	.+234    	; 0x124 <__bad_interrupt>
  3a:	00 00       	nop
  3c:	73 c0       	rjmp	.+230    	; 0x124 <__bad_interrupt>
  3e:	00 00       	nop
  40:	71 c0       	rjmp	.+226    	; 0x124 <__bad_interrupt>
  42:	00 00       	nop
  44:	6f c0       	rjmp	.+222    	; 0x124 <__bad_interrupt>
  46:	00 00       	nop
  48:	6d c0       	rjmp	.+218    	; 0x124 <__bad_interrupt>
  4a:	00 00       	nop
  4c:	6b c0       	rjmp	.+214    	; 0x124 <__bad_interrupt>
  4e:	00 00       	nop
  50:	69 c0       	rjmp	.+210    	; 0x124 <__bad_interrupt>
	...

00000054 <__ctors_end>:
  54:	11 24       	eor	r1, r1
  56:	1f be       	out	0x3f, r1	; 63
  58:	cf e5       	ldi	r28, 0x5F	; 95
  5a:	d8 e0       	ldi	r29, 0x08	; 8
  5c:	de bf       	out	0x3e, r29	; 62
  5e:	cd bf       	out	0x3d, r28	; 61
  60:	0a d0       	rcall	.+20     	; 0x76 <main>
  62:	02 c0       	rjmp	.+4      	; 0x68 <_etext>

00000064 <_exit>:
  64:	f8 94       	cli

00000066 <__stop_program>:
  66:	ff cf       	rjmp	.-2      	; 0x66 <__stop_program>

Disassembly of section .text:

00000124 <__bad_interrupt>:
 124:	6d cf       	rjmp	.-294    	; 0x0 <__TEXT_REGION_ORIGIN__>

Disassembly of section .text.startup.main:

00000076 <main>:
  76:	81 b3       	in	r24, 0x11	; 17
  78:	8f 61       	ori	r24, 0x1F	; 31
  7a:	81 bb       	out	0x11, r24	; 17
  7c:	82 b3       	in	r24, 0x12	; 18
  7e:	82 bb       	out	0x12, r24	; 18
  80:	d0 98       	cbi	0x1a, 0	; 26
  82:	38 9a       	sbi	0x07, 0	; 7
  84:	86 b1       	in	r24, 0x06	; 6
  86:	83 69       	ori	r24, 0x93	; 147
  88:	86 b9       	out	0x06, r24	; 6
  8a:	36 9a       	sbi	0x06, 6	; 6
  8c:	34 9b       	sbis	0x06, 4	; 6
  8e:	fe cf       	rjmp	.-4      	; 0x8c <main+0x16>
  90:	34 9a       	sbi	0x06, 4	; 6
  92:	84 b1       	in	r24, 0x04	; 4
  94:	95 b1       	in	r25, 0x05	; 5
  96:	9c 01       	movw	r18, r24
  98:	22 5c       	subi	r18, 0xC2	; 194
  9a:	31 09       	sbc	r19, r1
  9c:	2f 31       	cpi	r18, 0x1F	; 31
  9e:	31 05       	cpc	r19, r1
  a0:	68 f4       	brcc	.+26     	; 0xbc <main+0x46>
  a2:	94 9b       	sbis	0x12, 4	; 18
  a4:	15 c0       	rjmp	.+42     	; 0xd0 <main+0x5a>
  a6:	94 98       	cbi	0x12, 4	; 18
  a8:	2f e5       	ldi	r18, 0x5F	; 95
  aa:	8a ee       	ldi	r24, 0xEA	; 234
  ac:	90 e0       	ldi	r25, 0x00	; 0
  ae:	21 50       	subi	r18, 0x01	; 1
  b0:	80 40       	sbci	r24, 0x00	; 0
  b2:	90 40       	sbci	r25, 0x00	; 0
  b4:	e1 f7       	brne	.-8      	; 0xae <main+0x38>
  b6:	00 c0       	rjmp	.+0      	; 0xb8 <main+0x42>
  b8:	00 00       	nop
  ba:	e7 cf       	rjmp	.-50     	; 0x8a <main+0x14>
  bc:	9c 01       	movw	r18, r24
  be:	22 58       	subi	r18, 0x82	; 130
  c0:	31 40       	sbci	r19, 0x01	; 1
  c2:	2f 32       	cpi	r18, 0x2F	; 47
  c4:	31 05       	cpc	r19, r1
  c6:	30 f4       	brcc	.+12     	; 0xd4 <main+0x5e>
  c8:	93 9b       	sbis	0x12, 3	; 18
  ca:	0e c0       	rjmp	.+28     	; 0xe8 <main+0x72>
  cc:	93 98       	cbi	0x12, 3	; 18
  ce:	ec cf       	rjmp	.-40     	; 0xa8 <main+0x32>
  d0:	94 9a       	sbi	0x12, 4	; 18
  d2:	ea cf       	rjmp	.-44     	; 0xa8 <main+0x32>
  d4:	9c 01       	movw	r18, r24
  d6:	2a 54       	subi	r18, 0x4A	; 74
  d8:	32 40       	sbci	r19, 0x02	; 2
  da:	2f 32       	cpi	r18, 0x2F	; 47
  dc:	31 05       	cpc	r19, r1
  de:	30 f4       	brcc	.+12     	; 0xec <main+0x76>
  e0:	92 9b       	sbis	0x12, 2	; 18
  e2:	0e c0       	rjmp	.+28     	; 0x100 <main+0x8a>
  e4:	92 98       	cbi	0x12, 2	; 18
  e6:	e0 cf       	rjmp	.-64     	; 0xa8 <main+0x32>
  e8:	93 9a       	sbi	0x12, 3	; 18
  ea:	de cf       	rjmp	.-68     	; 0xa8 <main+0x32>
  ec:	9c 01       	movw	r18, r24
  ee:	25 51       	subi	r18, 0x15	; 21
  f0:	33 40       	sbci	r19, 0x03	; 3
  f2:	21 32       	cpi	r18, 0x21	; 33
  f4:	31 05       	cpc	r19, r1
  f6:	30 f4       	brcc	.+12     	; 0x104 <main+0x8e>
  f8:	91 9b       	sbis	0x12, 1	; 18
  fa:	0c c0       	rjmp	.+24     	; 0x114 <main+0x9e>
  fc:	91 98       	cbi	0x12, 1	; 18
  fe:	d4 cf       	rjmp	.-88     	; 0xa8 <main+0x32>
 100:	92 9a       	sbi	0x12, 2	; 18
 102:	d2 cf       	rjmp	.-92     	; 0xa8 <main+0x32>
 104:	89 3e       	cpi	r24, 0xE9	; 233
 106:	93 40       	sbci	r25, 0x03	; 3
 108:	08 f4       	brcc	.+2      	; 0x10c <main+0x96>
 10a:	bf cf       	rjmp	.-130    	; 0x8a <main+0x14>
 10c:	90 9b       	sbis	0x12, 0	; 18
 10e:	04 c0       	rjmp	.+8      	; 0x118 <main+0xa2>
 110:	90 98       	cbi	0x12, 0	; 18
 112:	ca cf       	rjmp	.-108    	; 0xa8 <main+0x32>
 114:	91 9a       	sbi	0x12, 1	; 18
 116:	c8 cf       	rjmp	.-112    	; 0xa8 <main+0x32>
 118:	90 9a       	sbi	0x12, 0	; 18
 11a:	c6 cf       	rjmp	.-116    	; 0xa8 <main+0x32>

Disassembly of section .text.__dummy_fini:

0000011c <_fini>:
 11c:	08 95       	ret

Disassembly of section .text.__dummy_funcs_on_exit:

00000122 <__funcs_on_exit>:
 122:	08 95       	ret

Disassembly of section .text.__dummy_simulator_exit:

0000011e <__simulator_exit>:
 11e:	08 95       	ret

Disassembly of section .text.exit:

00000068 <exit>:
  68:	ec 01       	movw	r28, r24
  6a:	5b d0       	rcall	.+182    	; 0x122 <__funcs_on_exit>
  6c:	57 d0       	rcall	.+174    	; 0x11c <_fini>
  6e:	ce 01       	movw	r24, r28
  70:	56 d0       	rcall	.+172    	; 0x11e <__simulator_exit>
  72:	ce 01       	movw	r24, r28
  74:	55 d0       	rcall	.+170    	; 0x120 <_Exit>

Disassembly of section .text._Exit:

00000120 <_Exit>:
 120:	a1 df       	rcall	.-190    	; 0x64 <_exit>
